; Function Attrs: mustprogress uwtable
define internal noundef zeroext i1 @_ZNK4absl19str_format_internal12_GLOBAL__N_128MatchesPointerStringMatcherPIPKvE10gmock_ImplIRKNSt7__cxx1112basic_stringIcSt11char_traitsIcESaIcEEEE15MatchAndExplainESE_PN7testing19MatchResultListenerE(ptr nocapture noundef nonnull readonly align 8 dereferenceable(16) %this, ptr noundef nonnull align 8 dereferenceable(32) %arg, ptr nocapture readnone %result_listener) unnamed_addr #3 align 2 personality ptr @__gxx_personality_v0 {
entry:
  %parsed = alloca ptr, align 8
  %ref.tmp6 = alloca %"class.absl::log_internal::LogMessageFatal", align 8
  %ptr = getelementptr inbounds i8, ptr %this, i64 8
  %0 = load ptr, ptr %ptr, align 8
  %cmp = icmp eq ptr %0, null
  br i1 %cmp, label %land.lhs.true, label %if.end

land.lhs.true:                                    ; preds = %entry
  %call.i = tail call noundef i32 @_ZNKSt7__cxx1112basic_stringIcSt11char_traitsIcESaIcEE7compareEPKc(ptr noundef nonnull align 8 dereferenceable(32) %arg, ptr noundef nonnull @.str.148) #28
  %cmp.i = icmp eq i32 %call.i, 0
  br i1 %cmp.i, label %return, label %if.end

if.end:                                           ; preds = %land.lhs.true, %entry
  store ptr null, ptr %parsed, align 8
  %call2 = tail call noundef ptr @_ZNKSt7__cxx1112basic_stringIcSt11char_traitsIcESaIcEE5c_strEv(ptr noundef nonnull align 8 dereferenceable(32) %arg) #28
  %call3 = call i32 (ptr, ptr, ...) @__isoc99_sscanf(ptr noundef %call2, ptr noundef nonnull @.str.92, ptr noundef nonnull %parsed) #28
  %cmp4.not = icmp eq i32 %call3, 1
  br i1 %cmp4.not, label %if.end11, label %if.then5

if.then5:                                         ; preds = %if.end
  call void @_ZN4absl12log_internal15LogMessageFatalC1EPKci(ptr noundef nonnull align 8 dereferenceable(16) %ref.tmp6, ptr noundef nonnull @.str.3, i32 noundef 371) #30
  invoke void @_ZN4absl12log_internal10LogMessage19CopyToEncodedBufferILNS1_10StringTypeE0EEEvSt17basic_string_viewIcSt11char_traitsIcEE(ptr noundef nonnull align 8 dereferenceable(16) %ref.tmp6, i64 16, ptr nonnull @.str.149)
          to label %invoke.cont unwind label %lpad

invoke.cont:                                      ; preds = %if.then5
  %call10 = invoke noundef nonnull align 8 dereferenceable(16) ptr @_ZN4absl12log_internal10LogMessagelsERKNSt7__cxx1112basic_stringIcSt11char_traitsIcESaIcEEE(ptr noundef nonnull align 8 dereferenceable(16) %ref.tmp6, ptr noundef nonnull align 8 dereferenceable(32) %arg)
          to label %invoke.cont9 unwind label %lpad

invoke.cont9:                                     ; preds = %invoke.cont
  call void @_ZN4absl12log_internal15LogMessageFatalD1Ev(ptr noundef nonnull align 8 dereferenceable(16) %ref.tmp6) #29
  unreachable

lpad:                                             ; preds = %if.then5, %invoke.cont
  %1 = landingpad { ptr, i32 }
          cleanup
  call void @_ZN4absl12log_internal15LogMessageFatalD1Ev(ptr noundef nonnull align 8 dereferenceable(16) %ref.tmp6) #29
  unreachable

if.end11:                                         ; preds = %if.end
  %2 = load ptr, ptr %ptr, align 8
  %3 = load ptr, ptr %parsed, align 8
  %cmp13 = icmp eq ptr %2, %3
  br label %return

return:                                           ; preds = %land.lhs.true, %if.end11
  %retval.0 = phi i1 [ %cmp13, %if.end11 ], [ true, %land.lhs.true ]
  ret i1 %retval.0
}